; Function Attrs: mustprogress nofree norecurse nosync nounwind willreturn memory(argmem: write) uwtable
define void @_Z12gmx_md5_initP11md5_state_s(ptr noundef writeonly captures(none) initializes((0, 24)) %0) local_unnamed_addr #0 {
  %2 = getelementptr inbounds nuw i8, ptr %0, i64 4
  store i32 0, ptr %2, align 4, !tbaa !4
  store i32 0, ptr %0, align 4, !tbaa !4
  %3 = getelementptr inbounds nuw i8, ptr %0, i64 8
  store i32 1732584193, ptr %3, align 4, !tbaa !4
  %4 = getelementptr inbounds nuw i8, ptr %0, i64 12
  store i32 -271733879, ptr %4, align 4, !tbaa !4
  %5 = getelementptr inbounds nuw i8, ptr %0, i64 16
  store i32 -1732584194, ptr %5, align 4, !tbaa !4
  %6 = getelementptr inbounds nuw i8, ptr %0, i64 20
  store i32 271733878, ptr %6, align 4, !tbaa !4
  ret void
}